(dp0
S'_2016-11-26-18-36-15_expb_Player.csv'
p1
cnumpy.core.multiarray
scalar
p2
(cnumpy
dtype
p3
(S'f8'
p4
I0
I1
tp5
Rp6
(I3
S'<'
p7
NNNI-1
I-1
I0
tp8
bS'D\xd6\xa4\xfe\xf1jH@'
p9
tp10
Rp11
sS'_2016-11-24-16-23-29_expb_Player.csv'
p12
g2
(g6
S'\x9e%\x1d\xc3RsH@'
p13
tp14
Rp15
sS'_2016-11-23-18-49-13_exp5_Player.csv'
p16
g2
(g6
S'\xdb\xb6m\xdb\xb6mH@'
p17
tp18
Rp19
sS'_2016-11-26-16-05-47_exp1d_Player.csv'
p20
g2
(g6
S'\xeca\x1f\xd4\x86pH@'
p21
tp22
Rp23
sS'_2016-11-26-17-15-53_exp4_Player.csv'
p24
g2
(g6
S'\x15\xa8\xf5+\x05jH@'
p25
tp26
Rp27
sS'_2016-11-23-18-49-13_exp1_Player.csv'
p28
g2
(g6
S'\x85\x94\xad*#yH@'
p29
tp30
Rp31
sS'_2016-11-24-17-15-38_expb_Player.csv'
p32
g2
(g6
S'8\xedO\xcd\x04\r6@'
p33
tp34
Rp35
sS'_2016-11-23-18-49-13_exp2_Player.csv'
p36
g2
(g6
S'a\xb9\xa7\x11\x96{H@'
p37
tp38
Rp39
sS'_2016-11-24-16-23-29_expd_Player.csv'
p40
g2
(g6
S'/@\x085\xb4{H@'
p41
tp42
Rp43
sS'_2016-11-24-16-23-29_expc_Player.csv'
p44
g2
(g6
S'qfMb\x11|H@'
p45
tp46
Rp47
sS'_2016-11-24-16-48-48_exp3d_Player.csv'
p48
g2
(g6
S'{\x14\xaeG\xe1zH@'
p49
tp50
Rp51
sS'_2016-11-24-15-43-37_exp5d_Player.csv'
p52
g2
(g6
S'\xd5\xa66\xb5\xa9}H@'
p53
tp54
Rp55
sS'_2016-11-24-17-15-38_expc_Player.csv'
p56
g2
(g6
S'\xfa\xd1\x8f~\xf4\x036@'
p57
tp58
Rp59
sS'_2016-11-26-18-36-15_expa_Player.csv'
p60
g2
(g6
S'6\x8c\xd1/8UH@'
p61
tp62
Rp63
sS'_2016-11-26-17-15-53_exp3_Player.csv'
p64
g2
(g6
S'\xb1\xee\x9d)AqH@'
p65
tp66
Rp67
sS'_2016-11-26-17-15-53_fixed_exp2d_Player.csv'
p68
g2
(g6
S"'x\xeepXgH@"
p69
tp70
Rp71
sS'_2016-11-24-15-43-37_exp2d_Player.csv'
p72
g2
(g6
S'\xa0o\xbb\x1b\xbd_H@'
p73
tp74
Rp75
sS'_2016-11-24-15-43-37_exp4d_Player.csv'
p76
g2
(g6
S'Lg1\x9d\xc5tH@'
p77
tp78
Rp79
sS'_2016-11-23-18-49-13_exp4_Player.csv'
p80
g2
(g6
S"h'\xca\xbab,H@"
p81
tp82
Rp83
sS'_2016-11-24-16-23-29_expa_Player.csv'
p84
g2
(g6
S't\xae\xfb\x9e\xedzH@'
p85
tp86
Rp87
sS'_2016-11-24-15-43-37_exp1d_Player.csv'
p88
g2
(g6
S'w\xb4w\xc4\xa3~H@'
p89
tp90
Rp91
sS'_2016-11-24-15-43-37_exp6d_Player.csv'
p92
g2
(g6
S'v\xd9e\x97]vH@'
p93
tp94
Rp95
sS'_2016-11-23-18-49-13_exp3_Player.csv'
p96
g2
(g6
S"\x0e*\xd0l'\x83H@"
p97
tp98
Rp99
sS'_2016-11-24-17-15-38_expa_Player.csv'
p100
g2
(g6
S'\xf2\x9bcRz\x106@'
p101
tp102
Rp103
sS'_2016-11-26-17-15-53_exp2_Player.csv'
p104
g2
(g6
S'\x03\xa2\xb4\xec\xa0uH@'
p105
tp106
Rp107
sS'_2016-11-26-17-38-21_fixed_exp1d_Player.csv'
p108
g2
(g6
S'O\xb6\xb5eI"H@'
p109
tp110
Rp111
sS'_2016-11-24-17-40-06_expb_Player.csv'
p112
g2
(g6
S'\xa1\x8a\xf5\xd89xH@'
p113
tp114
Rp115
sS'_2016-11-24-16-48-48_exp1d_Player.csv'
p116
g2
(g6
S'\xb6\x0c\x1d\xb0\xdbcH@'
p117
tp118
Rp119
sS'_2016-11-26-16-35-21_exp1d_Player.csv'
p120
g2
(g6
S'\xe1\xf7\\\x15(pH@'
p121
tp122
Rp123
s.